target datalayout = "e-m:e-p270:32:32-p271:32:32-p272:64:64-i64:64-i128:128-f80:128-n8:16:32:64-S128"
target triple = "x86_64-unknown-linux-gnu"

%"class.v8::Local" = type { %"class.v8::LocalBase" }
%"class.v8::LocalBase" = type { %"class.v8::IndirectHandleBase" }
%"class.v8::IndirectHandleBase" = type { ptr }
%"class.node::MemoryRetainer" = type { ptr }
%"class.v8::LocalBase.287" = type { %"class.v8::IndirectHandleBase" }
%"class.v8::Local.286" = type { %"class.v8::LocalBase.287" }
%"class.node::crypto::SecureContext" = type { %"class.node::BaseObject", %"class.std::unique_ptr.298", %"class.std::unique_ptr.306", %"class.std::unique_ptr.306", i8, [7 x i8], %"struct.node::crypto::EnginePointer", [16 x i8], [16 x i8], [16 x i8] }
%"class.node::BaseObject" = type { %"class.node::MemoryRetainer", %"class.v8::Global.296", ptr, ptr }
%"class.v8::Global.296" = type { %"class.v8::PersistentBase.297" }
%"class.v8::PersistentBase.297" = type { %"class.v8::IndirectHandleBase" }
%"class.std::unique_ptr.298" = type { %"struct.std::__uniq_ptr_data.299" }
%"struct.std::__uniq_ptr_data.299" = type { %"class.std::__uniq_ptr_impl.300" }
%"class.std::__uniq_ptr_impl.300" = type { %"class.std::tuple.301" }
%"class.std::tuple.301" = type { %"struct.std::_Tuple_impl.302" }
%"struct.std::_Tuple_impl.302" = type { %"struct.std::_Head_base.305" }
%"struct.std::_Head_base.305" = type { ptr }
%"class.std::unique_ptr.306" = type { %"struct.std::__uniq_ptr_data.307" }
%"struct.std::__uniq_ptr_data.307" = type { %"class.std::__uniq_ptr_impl.308" }
%"class.std::__uniq_ptr_impl.308" = type { %"class.std::tuple.309" }
%"class.std::tuple.309" = type { %"struct.std::_Tuple_impl.310" }
%"struct.std::_Tuple_impl.310" = type { %"struct.std::_Head_base.313" }
%"struct.std::_Head_base.313" = type { ptr }
%"struct.node::crypto::EnginePointer" = type <{ ptr, i8, [7 x i8] }>
%"struct.node::crypto::ClearErrorOnReturn" = type { i8 }

@_ZZN4node6crypto24GetOrCreateRootCertStoreEvE5store = linkonce_odr dso_local global ptr null, comdat, align 8
@_ZGVZN4node6crypto24GetOrCreateRootCertStoreEvE5store = linkonce_odr dso_local global i64 0, comdat, align 8

; Function Attrs: mustprogress nounwind uwtable
define linkonce_odr dso_local noundef nonnull align 8 dereferenceable(8) ptr @_ZNSt10_Head_baseILm0EP10ssl_ctx_stLb0EE7_M_headERKS2_(ptr noundef nonnull align 8 dereferenceable(8) %__b) #4 comdat align 2 {
entry:
  %__b.addr = alloca ptr, align 8
  store ptr %__b, ptr %__b.addr, align 8
  %0 = load ptr, ptr %__b.addr, align 8
  %_M_head_impl = getelementptr inbounds %"struct.std::_Head_base.305", ptr %0, i32 0, i32 0
  ret ptr %_M_head_impl
}

; Function Attrs: mustprogress nounwind uwtable
define linkonce_odr dso_local noundef nonnull align 8 dereferenceable(8) ptr @_ZNSt11_Tuple_implILm0EJP10ssl_ctx_stN4node15FunctionDeleterIS0_XadL_Z12SSL_CTX_freeEEEEEE7_M_headERKS5_(ptr noundef nonnull align 8 dereferenceable(8) %__t) #4 comdat align 2 {
entry:
  %__t.addr = alloca ptr, align 8
  store ptr %__t, ptr %__t.addr, align 8
  %0 = load ptr, ptr %__t.addr, align 8
  %call = call noundef nonnull align 8 dereferenceable(8) ptr @_ZNSt10_Head_baseILm0EP10ssl_ctx_stLb0EE7_M_headERKS2_(ptr noundef nonnull align 8 dereferenceable(8) %0) #3
  ret ptr %call
}

; Function Attrs: mustprogress nounwind uwtable
define linkonce_odr dso_local noundef nonnull align 8 dereferenceable(8) ptr @_ZSt12__get_helperILm0EP10ssl_ctx_stJN4node15FunctionDeleterIS0_XadL_Z12SSL_CTX_freeEEEEEERKT0_RKSt11_Tuple_implIXT_EJS5_DpT1_EE(ptr noundef nonnull align 8 dereferenceable(8) %__t) #4 comdat {
entry:
  %__t.addr = alloca ptr, align 8
  store ptr %__t, ptr %__t.addr, align 8
  %0 = load ptr, ptr %__t.addr, align 8
  %call = call noundef nonnull align 8 dereferenceable(8) ptr @_ZNSt11_Tuple_implILm0EJP10ssl_ctx_stN4node15FunctionDeleterIS0_XadL_Z12SSL_CTX_freeEEEEEE7_M_headERKS5_(ptr noundef nonnull align 8 dereferenceable(8) %0) #3
  ret ptr %call
}

; Function Attrs: mustprogress nounwind uwtable
define linkonce_odr dso_local noundef nonnull align 8 dereferenceable(8) ptr @_ZSt3getILm0EJP10ssl_ctx_stN4node15FunctionDeleterIS0_XadL_Z12SSL_CTX_freeEEEEEERKNSt13tuple_elementIXT_ESt5tupleIJDpT0_EEE4typeERKS9_(ptr noundef nonnull align 8 dereferenceable(8) %__t) #4 comdat {
entry:
  %__t.addr = alloca ptr, align 8
  store ptr %__t, ptr %__t.addr, align 8
  %0 = load ptr, ptr %__t.addr, align 8
  %call = call noundef nonnull align 8 dereferenceable(8) ptr @_ZSt12__get_helperILm0EP10ssl_ctx_stJN4node15FunctionDeleterIS0_XadL_Z12SSL_CTX_freeEEEEEERKT0_RKSt11_Tuple_implIXT_EJS5_DpT1_EE(ptr noundef nonnull align 8 dereferenceable(8) %0) #3
  ret ptr %call
}

; Function Attrs: mustprogress nounwind uwtable
define linkonce_odr dso_local noundef ptr @_ZNKSt15__uniq_ptr_implI10ssl_ctx_stN4node15FunctionDeleterIS0_XadL_Z12SSL_CTX_freeEEEEE6_M_ptrEv(ptr noundef nonnull align 8 dereferenceable(8) %this) #4 comdat align 2 {
entry:
  %this.addr = alloca ptr, align 8
  store ptr %this, ptr %this.addr, align 8
  %this1 = load ptr, ptr %this.addr, align 8
  %_M_t = getelementptr inbounds %"class.std::__uniq_ptr_impl.300", ptr %this1, i32 0, i32 0
  %call = call noundef nonnull align 8 dereferenceable(8) ptr @_ZSt3getILm0EJP10ssl_ctx_stN4node15FunctionDeleterIS0_XadL_Z12SSL_CTX_freeEEEEEERKNSt13tuple_elementIXT_ESt5tupleIJDpT0_EEE4typeERKS9_(ptr noundef nonnull align 8 dereferenceable(8) %_M_t) #3
  %0 = load ptr, ptr %call, align 8
  ret ptr %0
}

; Function Attrs: mustprogress nounwind uwtable
define linkonce_odr dso_local void @_ZN4node6crypto18ClearErrorOnReturnD2Ev(ptr noundef nonnull align 1 dereferenceable(1) %this) unnamed_addr #4 comdat align 2 {
entry:
  %this.addr = alloca ptr, align 8
  store ptr %this, ptr %this.addr, align 8
  call void @ERR_clear_error()
  ret void
}

; Function Attrs: mustprogress nounwind uwtable
define linkonce_odr dso_local noundef ptr @_ZNKSt10unique_ptrI10ssl_ctx_stN4node15FunctionDeleterIS0_XadL_Z12SSL_CTX_freeEEEEE3getEv(ptr noundef nonnull align 8 dereferenceable(8) %this) #4 comdat align 2 {
entry:
  %this.addr = alloca ptr, align 8
  store ptr %this, ptr %this.addr, align 8
  %this1 = load ptr, ptr %this.addr, align 8
  %_M_t = getelementptr inbounds %"class.std::unique_ptr.298", ptr %this1, i32 0, i32 0
  %call = call noundef ptr @_ZNKSt15__uniq_ptr_implI10ssl_ctx_stN4node15FunctionDeleterIS0_XadL_Z12SSL_CTX_freeEEEEE6_M_ptrEv(ptr noundef nonnull align 8 dereferenceable(8) %_M_t) #3
  ret ptr %call
}

; Function Attrs: mustprogress nounwind uwtable
define linkonce_odr dso_local noundef ptr @_ZN4node6crypto24GetOrCreateRootCertStoreEv() #4 comdat {
entry:
  %0 = load atomic i8, ptr @_ZGVZN4node6crypto24GetOrCreateRootCertStoreEvE5store acquire, align 8
  %guard.uninitialized = icmp eq i8 %0, 0
  br i1 %guard.uninitialized, label %init.check, label %init.end, !prof !5

init.check:                                       ; preds = %entry
  %1 = call i32 @__cxa_guard_acquire(ptr @_ZGVZN4node6crypto24GetOrCreateRootCertStoreEvE5store) #3
  %tobool = icmp ne i32 %1, 0
  br i1 %tobool, label %init, label %init.end

init:                                             ; preds = %init.check
  %call = call noundef ptr @_ZN4node6crypto16NewRootCertStoreEv()
  store ptr %call, ptr @_ZZN4node6crypto24GetOrCreateRootCertStoreEvE5store, align 8
  call void @__cxa_guard_release(ptr @_ZGVZN4node6crypto24GetOrCreateRootCertStoreEvE5store) #3
  br label %init.end

init.end:                                         ; preds = %init, %init.check, %entry
  %2 = load ptr, ptr @_ZZN4node6crypto24GetOrCreateRootCertStoreEvE5store, align 8
  ret ptr %2
}

; Function Attrs: mustprogress nounwind uwtable
define dso_local void @_ZN4node6crypto13SecureContext12SetRootCertsEv(ptr noundef nonnull align 8 dereferenceable(128) %this) #4 align 2 {
entry:
  %this.addr = alloca ptr, align 8
  %clear_error_on_return = alloca %"struct.node::crypto::ClearErrorOnReturn", align 1
  %store = alloca ptr, align 8
  store ptr %this, ptr %this.addr, align 8
  %this1 = load ptr, ptr %this.addr, align 8
  %call = call noundef ptr @_ZN4node6crypto24GetOrCreateRootCertStoreEv()
  store ptr %call, ptr %store, align 8
  %0 = load ptr, ptr %store, align 8
  %call2 = call i32 @X509_STORE_up_ref(ptr noundef %0)
  %ctx_ = getelementptr inbounds %"class.node::crypto::SecureContext", ptr %this1, i32 0, i32 1
  %call3 = call noundef ptr @_ZNKSt10unique_ptrI10ssl_ctx_stN4node15FunctionDeleterIS0_XadL_Z12SSL_CTX_freeEEEEE3getEv(ptr noundef nonnull align 8 dereferenceable(8) %ctx_) #3
  %1 = load ptr, ptr %store, align 8
  call void @SSL_CTX_set_cert_store(ptr noundef %call3, ptr noundef %1)
  call void @_ZN4node6crypto18ClearErrorOnReturnD2Ev(ptr noundef nonnull align 1 dereferenceable(1) %clear_error_on_return) #3
  ret void
}

; Function Attrs: mustprogress nounwind uwtable
define linkonce_odr dso_local noundef ptr @_ZN4node10BaseObject12FromJSObjectEN2v85LocalINS1_5ValueEEE(ptr %value.coerce) #4 comdat align 2 {
entry:
  %instance_type.addr.i = alloca i32, align 4
  %value.addr.i = alloca ptr, align 8
  %slot.addr.i = alloca ptr, align 8
  %this.addr.i.i = alloca ptr, align 8
  %this.addr.i21 = alloca ptr, align 8
  %this.addr.i18 = alloca ptr, align 8
  %other.addr.i19 = alloca ptr, align 8
  %this.addr.i16 = alloca ptr, align 8
  %other.addr.i = alloca ptr, align 8
  %retval.i15 = alloca %"class.v8::Local.286", align 8
  %that.i = alloca %"class.v8::Local", align 8
  %ref.tmp.i = alloca %"class.v8::LocalBase.287", align 8
  %heap_object_ptr.addr.i.i.i = alloca i64, align 8
  %offset.addr.i.i.i = alloca i32, align 4
  %addr.i.i.i = alloca i64, align 8
  %isolate.addr.i.i = alloca ptr, align 8
  %heap_object_ptr.addr.i19.i = alloca i64, align 8
  %offset.addr.i20.i = alloca i32, align 4
  %obj.addr.i18.i = alloca i64, align 8
  %heap_object_ptr.addr.i12.i = alloca i64, align 8
  %offset.addr.i13.i = alloca i32, align 4
  %addr.i14.i = alloca i64, align 8
  %heap_object_ptr.addr.i9.i = alloca i64, align 8
  %offset.addr.i10.i = alloca i32, align 4
  %addr.i.i = alloca i64, align 8
  %heap_object_ptr.addr.i.i = alloca i64, align 8
  %offset.addr.i.i = alloca i32, align 4
  %obj.addr.i.i = alloca i64, align 8
  %map.i.i = alloca i64, align 8
  %retval.i11 = alloca ptr, align 8
  %this.addr.i12 = alloca ptr, align 8
  %index.addr.i = alloca i32, align 4
  %obj.i = alloca i64, align 8
  %instance_type.i = alloca i32, align 4
  %offset.i = alloca i32, align 4
  %isolate.i = alloca ptr, align 8
  %value.i = alloca i64, align 8
  %this.addr.i8 = alloca ptr, align 8
  %retval.i = alloca %"class.v8::Local.286", align 8
  %this.addr.i = alloca ptr, align 8
  %agg.tmp.i = alloca %"class.v8::Local", align 8
  %value = alloca %"class.v8::Local", align 8
  %obj = alloca %"class.v8::Local.286", align 8
  %coerce.dive = getelementptr inbounds %"class.v8::Local", ptr %value, i32 0, i32 0
  %coerce.dive1 = getelementptr inbounds %"class.v8::LocalBase", ptr %coerce.dive, i32 0, i32 0
  %coerce.dive2 = getelementptr inbounds %"class.v8::IndirectHandleBase", ptr %coerce.dive1, i32 0, i32 0
  store ptr %value.coerce, ptr %coerce.dive2, align 8
  store ptr %value, ptr %this.addr.i, align 8
  %this1.i = load ptr, ptr %this.addr.i, align 8
  call void @llvm.memcpy.p0.p0.i64(ptr align 8 %agg.tmp.i, ptr align 8 %this1.i, i64 8, i1 false)
  %0 = load ptr, ptr %agg.tmp.i, align 8
  store ptr %0, ptr %that.i, align 8
  store ptr %ref.tmp.i, ptr %this.addr.i16, align 8
  store ptr %that.i, ptr %other.addr.i, align 8
  %this1.i17 = load ptr, ptr %this.addr.i16, align 8
  %1 = load ptr, ptr %other.addr.i, align 8
  call void @llvm.memcpy.p0.p0.i64(ptr align 8 %this1.i17, ptr align 8 %1, i64 8, i1 false)
  store ptr %retval.i15, ptr %this.addr.i18, align 8
  store ptr %ref.tmp.i, ptr %other.addr.i19, align 8
  %this1.i20 = load ptr, ptr %this.addr.i18, align 8
  %2 = load ptr, ptr %other.addr.i19, align 8
  call void @llvm.memcpy.p0.p0.i64(ptr align 8 %this1.i20, ptr align 8 %2, i64 8, i1 false)
  %3 = load ptr, ptr %retval.i15, align 8
  store ptr %3, ptr %retval.i, align 8
  %4 = load ptr, ptr %retval.i, align 8
  %coerce.dive3 = getelementptr inbounds %"class.v8::Local.286", ptr %obj, i32 0, i32 0
  %coerce.dive4 = getelementptr inbounds %"class.v8::LocalBase.287", ptr %coerce.dive3, i32 0, i32 0
  %coerce.dive5 = getelementptr inbounds %"class.v8::IndirectHandleBase", ptr %coerce.dive4, i32 0, i32 0
  store ptr %4, ptr %coerce.dive5, align 8
  store ptr %obj, ptr %this.addr.i8, align 8
  %this1.i9 = load ptr, ptr %this.addr.i8, align 8
  store ptr %this1.i9, ptr %this.addr.i21, align 8
  %this1.i22 = load ptr, ptr %this.addr.i21, align 8
  store ptr %this1.i22, ptr %this.addr.i.i, align 8
  %this1.i.i = load ptr, ptr %this.addr.i.i, align 8
  %5 = load ptr, ptr %this1.i.i, align 8
  store ptr %5, ptr %slot.addr.i, align 8
  %6 = load ptr, ptr %slot.addr.i, align 8
  store ptr %6, ptr %this.addr.i12, align 8
  store i32 1, ptr %index.addr.i, align 4
  %this1.i13 = load ptr, ptr %this.addr.i12, align 8
  store ptr %this1.i13, ptr %value.addr.i, align 8
  %7 = load ptr, ptr %value.addr.i, align 8
  %8 = load i64, ptr %7, align 8
  store i64 %8, ptr %obj.i, align 8
  %9 = load i64, ptr %obj.i, align 8
  store i64 %9, ptr %obj.addr.i.i, align 8
  %10 = load i64, ptr %obj.addr.i.i, align 8
  store i64 %10, ptr %heap_object_ptr.addr.i.i, align 8
  store i32 0, ptr %offset.addr.i.i, align 4
  %11 = load i64, ptr %heap_object_ptr.addr.i.i, align 8
  %12 = load i32, ptr %offset.addr.i.i, align 4
  store i64 %11, ptr %heap_object_ptr.addr.i12.i, align 8
  store i32 %12, ptr %offset.addr.i13.i, align 4
  %13 = load i64, ptr %heap_object_ptr.addr.i12.i, align 8
  %14 = load i32, ptr %offset.addr.i13.i, align 4
  %conv.i15.i = sext i32 %14 to i64
  %add.i16.i = add i64 %13, %conv.i15.i
  %sub.i17.i = sub i64 %add.i16.i, 1
  store i64 %sub.i17.i, ptr %addr.i14.i, align 8
  %15 = load i64, ptr %addr.i14.i, align 8
  %16 = inttoptr i64 %15 to ptr
  %17 = load i64, ptr %16, align 8
  store i64 %17, ptr %map.i.i, align 8
  %18 = load i64, ptr %map.i.i, align 8
  store i64 %18, ptr %heap_object_ptr.addr.i9.i, align 8
  store i32 12, ptr %offset.addr.i10.i, align 4
  %19 = load i64, ptr %heap_object_ptr.addr.i9.i, align 8
  %20 = load i32, ptr %offset.addr.i10.i, align 4
  %conv.i11.i = sext i32 %20 to i64
  %add.i.i = add i64 %19, %conv.i11.i
  %sub.i.i = sub i64 %add.i.i, 1
  store i64 %sub.i.i, ptr %addr.i.i, align 8
  %21 = load i64, ptr %addr.i.i, align 8
  %22 = inttoptr i64 %21 to ptr
  %23 = load i16, ptr %22, align 2
  %conv.i.i = zext i16 %23 to i32
  store i32 %conv.i.i, ptr %instance_type.i, align 4
  %24 = load i32, ptr %instance_type.i, align 4
  store i32 %24, ptr %instance_type.addr.i, align 4
  %25 = load i32, ptr %instance_type.addr.i, align 4
  %cmp.i = icmp eq i32 %25, 1040
  br i1 %cmp.i, label %_ZN2v88internal9Internals20CanHaveInternalFieldEi.exit, label %lor.rhs.i

lor.rhs.i:                                        ; preds = %entry
  %26 = load i32, ptr %instance_type.addr.i, align 4
  %sub.i = sub i32 %26, 1057
  %cmp1.i = icmp ule i32 %sub.i, 1001
  br label %_ZN2v88internal9Internals20CanHaveInternalFieldEi.exit

_ZN2v88internal9Internals20CanHaveInternalFieldEi.exit: ; preds = %lor.rhs.i, %entry
  %27 = phi i1 [ true, %entry ], [ %cmp1.i, %lor.rhs.i ]
  br i1 %27, label %if.then.i, label %if.end.i

if.then.i:                                        ; preds = %_ZN2v88internal9Internals20CanHaveInternalFieldEi.exit
  %28 = load i32, ptr %index.addr.i, align 4
  %mul.i = mul nsw i32 8, %28
  %add.i = add nsw i32 24, %mul.i
  store i32 %add.i, ptr %offset.i, align 4
  %29 = load i64, ptr %obj.i, align 8
  store i64 %29, ptr %obj.addr.i18.i, align 8
  store ptr null, ptr %isolate.i, align 8
  %30 = load ptr, ptr %isolate.i, align 8
  %31 = load i64, ptr %obj.i, align 8
  %32 = load i32, ptr %offset.i, align 4
  store ptr %30, ptr %isolate.addr.i.i, align 8
  store i64 %31, ptr %heap_object_ptr.addr.i19.i, align 8
  store i32 %32, ptr %offset.addr.i20.i, align 4
  %33 = load i64, ptr %heap_object_ptr.addr.i19.i, align 8
  %34 = load i32, ptr %offset.addr.i20.i, align 4
  store i64 %33, ptr %heap_object_ptr.addr.i.i.i, align 8
  store i32 %34, ptr %offset.addr.i.i.i, align 4
  %35 = load i64, ptr %heap_object_ptr.addr.i.i.i, align 8
  %36 = load i32, ptr %offset.addr.i.i.i, align 4
  %conv.i.i.i = sext i32 %36 to i64
  %add.i.i.i = add i64 %35, %conv.i.i.i
  %sub.i.i.i = sub i64 %add.i.i.i, 1
  store i64 %sub.i.i.i, ptr %addr.i.i.i, align 8
  %37 = load i64, ptr %addr.i.i.i, align 8
  %38 = inttoptr i64 %37 to ptr
  %39 = load i64, ptr %38, align 8
  store i64 %39, ptr %value.i, align 8
  %40 = load i64, ptr %value.i, align 8
  %41 = inttoptr i64 %40 to ptr
  store ptr %41, ptr %retval.i11, align 8
  br label %_ZN2v86Object34GetAlignedPointerFromInternalFieldEi.exit

if.end.i:                                         ; preds = %_ZN2v88internal9Internals20CanHaveInternalFieldEi.exit
  %42 = load i32, ptr %index.addr.i, align 4
  %call7.i = call noundef ptr @_ZN2v86Object38SlowGetAlignedPointerFromInternalFieldEi(ptr noundef nonnull align 1 dereferenceable(1) %this1.i13, i32 noundef %42) #3
  store ptr %call7.i, ptr %retval.i11, align 8
  br label %_ZN2v86Object34GetAlignedPointerFromInternalFieldEi.exit

_ZN2v86Object34GetAlignedPointerFromInternalFieldEi.exit: ; preds = %if.end.i, %if.then.i
  %43 = load ptr, ptr %retval.i11, align 8
  ret ptr %43
}

; Function Attrs: mustprogress nounwind uwtable
define dso_local void @_ZN4node6crypto13SecureContext12AddRootCertsERKN2v820FunctionCallbackInfoINS2_5ValueEEE(ptr noundef nonnull align 8 dereferenceable(20) %args) #4 align 2 {
entry:
  %this.addr.i.i.i = alloca ptr, align 8
  %location.addr.i.i.i = alloca ptr, align 8
  %this.addr.i.i16 = alloca ptr, align 8
  %location.addr.i.i = alloca ptr, align 8
  %retval.i17 = alloca %"class.v8::LocalBase.287", align 8
  %slot.addr.i18 = alloca ptr, align 8
  %this.addr.i.i = alloca ptr, align 8
  %other.addr.i.i = alloca ptr, align 8
  %retval.i14 = alloca %"class.v8::Local.286", align 8
  %slot.addr.i = alloca ptr, align 8
  %ref.tmp.i = alloca %"class.v8::LocalBase.287", align 8
  %this.addr.i12 = alloca ptr, align 8
  %other.addr.i = alloca ptr, align 8
  %that.i = alloca %"class.v8::Local.286", align 8
  %this.addr.i11 = alloca ptr, align 8
  %retval.i = alloca %"class.v8::Local.286", align 8
  %this.addr.i = alloca ptr, align 8
  %args.addr = alloca ptr, align 8
  %sc = alloca ptr, align 8
  %agg.tmp = alloca %"class.v8::Local", align 8
  %agg.tmp1 = alloca %"class.v8::Local.286", align 8
  store ptr %args, ptr %args.addr, align 8
  br label %do.body

do.body:                                          ; preds = %entry
  %0 = load ptr, ptr %args.addr, align 8
  store ptr %0, ptr %this.addr.i, align 8
  %this1.i = load ptr, ptr %this.addr.i, align 8
  %1 = load ptr, ptr %this1.i, align 8
  store ptr %1, ptr %slot.addr.i, align 8
  %2 = load ptr, ptr %slot.addr.i, align 8
  store ptr %2, ptr %slot.addr.i18, align 8
  %3 = load ptr, ptr %slot.addr.i18, align 8
  store ptr %retval.i17, ptr %this.addr.i.i16, align 8
  store ptr %3, ptr %location.addr.i.i, align 8
  %this1.i.i19 = load ptr, ptr %this.addr.i.i16, align 8
  %4 = load ptr, ptr %location.addr.i.i, align 8
  store ptr %this1.i.i19, ptr %this.addr.i.i.i, align 8
  store ptr %4, ptr %location.addr.i.i.i, align 8
  %this1.i.i.i = load ptr, ptr %this.addr.i.i.i, align 8
  %5 = load ptr, ptr %location.addr.i.i.i, align 8
  store ptr %5, ptr %this1.i.i.i, align 8
  %6 = load ptr, ptr %retval.i17, align 8
  store ptr %6, ptr %ref.tmp.i, align 8
  store ptr %retval.i14, ptr %this.addr.i.i, align 8
  store ptr %ref.tmp.i, ptr %other.addr.i.i, align 8
  %this1.i.i = load ptr, ptr %this.addr.i.i, align 8
  %7 = load ptr, ptr %other.addr.i.i, align 8
  call void @llvm.memcpy.p0.p0.i64(ptr align 8 %this1.i.i, ptr align 8 %7, i64 8, i1 false)
  %8 = load ptr, ptr %retval.i14, align 8
  store ptr %8, ptr %retval.i, align 8
  %9 = load ptr, ptr %retval.i, align 8
  %coerce.dive = getelementptr inbounds %"class.v8::Local.286", ptr %agg.tmp1, i32 0, i32 0
  %coerce.dive2 = getelementptr inbounds %"class.v8::LocalBase.287", ptr %coerce.dive, i32 0, i32 0
  %coerce.dive3 = getelementptr inbounds %"class.v8::IndirectHandleBase", ptr %coerce.dive2, i32 0, i32 0
  store ptr %9, ptr %coerce.dive3, align 8
  %coerce.dive4 = getelementptr inbounds %"class.v8::Local.286", ptr %agg.tmp1, i32 0, i32 0
  %coerce.dive5 = getelementptr inbounds %"class.v8::LocalBase.287", ptr %coerce.dive4, i32 0, i32 0
  %coerce.dive6 = getelementptr inbounds %"class.v8::IndirectHandleBase", ptr %coerce.dive5, i32 0, i32 0
  %10 = load ptr, ptr %coerce.dive6, align 8
  store ptr %10, ptr %that.i, align 8
  store ptr %agg.tmp, ptr %this.addr.i11, align 8
  %this3.i = load ptr, ptr %this.addr.i11, align 8
  store ptr %this3.i, ptr %this.addr.i12, align 8
  store ptr %that.i, ptr %other.addr.i, align 8
  %this1.i13 = load ptr, ptr %this.addr.i12, align 8
  %11 = load ptr, ptr %other.addr.i, align 8
  call void @llvm.memcpy.p0.p0.i64(ptr align 8 %this1.i13, ptr align 8 %11, i64 8, i1 false)
  %coerce.dive7 = getelementptr inbounds %"class.v8::Local", ptr %agg.tmp, i32 0, i32 0
  %coerce.dive8 = getelementptr inbounds %"class.v8::LocalBase", ptr %coerce.dive7, i32 0, i32 0
  %coerce.dive9 = getelementptr inbounds %"class.v8::IndirectHandleBase", ptr %coerce.dive8, i32 0, i32 0
  %12 = load ptr, ptr %coerce.dive9, align 8
  %call10 = call noundef ptr @_ZN4node10BaseObject12FromJSObjectEN2v85LocalINS1_5ValueEEE(ptr %12)
  store ptr %call10, ptr %sc, align 8
  %13 = load ptr, ptr %sc, align 8
  %cmp = icmp eq ptr %13, null
  br i1 %cmp, label %if.then, label %if.end

if.then:                                          ; preds = %do.body
  br label %return

if.end:                                           ; preds = %do.body
  br label %do.end

do.end:                                           ; preds = %if.end
  %14 = load ptr, ptr %sc, align 8
  call void @_ZN4node6crypto13SecureContext12SetRootCertsEv(ptr noundef nonnull align 8 dereferenceable(128) %14)
  br label %return

return:                                           ; preds = %do.end, %if.then
  ret void
}